; ModuleID = 'source-C-CXX/29/3111.cpp'
source_filename = "source-C-CXX/29/3111.cpp"
target datalayout = "e-m:e-p270:32:32-p271:32:32-p272:64:64-i64:64-f80:128-n8:16:32:64-S128"
target triple = "x86_64-pc-linux-gnu"

%"class.std::ios_base::Init" = type { i8 }
%"class.std::basic_istream" = type { i32 (...)**, i64, %"class.std::basic_ios" }
%"class.std::basic_ios" = type { %"class.std::ios_base", %"class.std::basic_ostream"*, i8, i8, %"class.std::basic_streambuf"*, %"class.std::ctype"*, %"class.std::num_put"*, %"class.std::num_get"* }
%"class.std::ios_base" = type { i32 (...)**, i64, i64, i32, i32, i32, %"struct.std::ios_base::_Callback_list"*, %"struct.std::ios_base::_Words", [8 x %"struct.std::ios_base::_Words"], i32, %"struct.std::ios_base::_Words"*, %"class.std::locale" }
%"struct.std::ios_base::_Callback_list" = type { %"struct.std::ios_base::_Callback_list"*, void (i32, %"class.std::ios_base"*, i32)*, i32, i32 }
%"struct.std::ios_base::_Words" = type { i8*, i64 }
%"class.std::locale" = type { %"class.std::locale::_Impl"* }
%"class.std::locale::_Impl" = type { i32, %"class.std::locale::facet"**, i64, %"class.std::locale::facet"**, i8** }
%"class.std::locale::facet" = type <{ i32 (...)**, i32, [4 x i8] }>
%"class.std::basic_ostream" = type { i32 (...)**, %"class.std::basic_ios" }
%"class.std::basic_streambuf" = type { i32 (...)**, i8*, i8*, i8*, i8*, i8*, i8*, %"class.std::locale" }
%"class.std::ctype" = type <{ %"class.std::locale::facet.base", [4 x i8], %struct.__locale_struct*, i8, [7 x i8], i32*, i32*, i16*, i8, [256 x i8], [256 x i8], i8, [6 x i8] }>
%"class.std::locale::facet.base" = type <{ i32 (...)**, i32 }>
%struct.__locale_struct = type { [13 x %struct.__locale_data*], i16*, i32*, i32*, [13 x i8*] }
%struct.__locale_data = type opaque
%"class.std::num_put" = type { %"class.std::locale::facet.base", [4 x i8] }
%"class.std::num_get" = type { %"class.std::locale::facet.base", [4 x i8] }

@_ZStL8__ioinit = internal global %"class.std::ios_base::Init" zeroinitializer, align 1
@__dso_handle = external hidden global i8
@_ZSt3cin = external global %"class.std::basic_istream", align 8
@_ZSt4cout = external global %"class.std::basic_ostream", align 8
@llvm.global_ctors = appending global [1 x { i32, void ()*, i8* }] [{ i32, void ()*, i8* } { i32 65535, void ()* @_GLOBAL__sub_I_3111.cpp, i8* null }]

declare void @_ZNSt8ios_base4InitC1Ev(%"class.std::ios_base::Init"* nonnull align 1 dereferenceable(1)) unnamed_addr #0

; Function Attrs: nounwind
declare void @_ZNSt8ios_base4InitD1Ev(%"class.std::ios_base::Init"* nonnull align 1 dereferenceable(1)) unnamed_addr #1

; Function Attrs: nofree nounwind
declare i32 @__cxa_atexit(void (i8*)*, i8*, i8*) local_unnamed_addr #2

; Function Attrs: mustprogress norecurse sspstrong uwtable
define dso_local i32 @main() local_unnamed_addr #3 {
  %1 = alloca [100 x [3 x i32]], align 16
  %2 = alloca [100 x i32], align 16
  %3 = alloca i32, align 4
  %4 = bitcast [100 x [3 x i32]]* %1 to i8*
  call void @llvm.lifetime.start.p0i8(i64 1200, i8* nonnull %4) #8
  call void @llvm.memset.p0i8.i64(i8* noundef nonnull align 16 dereferenceable(1200) %4, i8 0, i64 1200, i1 false)
  %5 = bitcast [100 x i32]* %2 to i8*
  call void @llvm.lifetime.start.p0i8(i64 400, i8* nonnull %5) #8
  call void @llvm.memset.p0i8.i64(i8* noundef nonnull align 16 dereferenceable(400) %5, i8 0, i64 400, i1 false)
  %6 = bitcast i32* %3 to i8*
  call void @llvm.lifetime.start.p0i8(i64 4, i8* nonnull %6) #8
  %7 = call nonnull align 8 dereferenceable(16) %"class.std::basic_istream"* @_ZNSirsERi(%"class.std::basic_istream"* nonnull align 8 dereferenceable(16) @_ZSt3cin, i32* nonnull align 4 dereferenceable(4) %3)
  %8 = load i32, i32* %3, align 4, !tbaa !5
  %9 = icmp sgt i32 %8, 0
  br i1 %9, label %10, label %122

10:                                               ; preds = %0
  %11 = zext i32 %8 to i64
  br label %15

12:                                               ; preds = %15
  br i1 %9, label %13, label %122

13:                                               ; preds = %12
  %14 = zext i32 %8 to i64
  br label %94

15:                                               ; preds = %10, %15
  %16 = phi i64 [ 0, %10 ], [ %17, %15 ]
  %17 = add nuw nsw i64 %16, 1
  %18 = getelementptr inbounds [100 x [3 x i32]], [100 x [3 x i32]]* %1, i64 0, i64 %16, i64 0
  %19 = trunc i64 %17 to i32
  store i32 %19, i32* %18, align 4, !tbaa !5
  %20 = urem i32 %19, 10
  %21 = getelementptr inbounds [100 x [3 x i32]], [100 x [3 x i32]]* %1, i64 0, i64 %16, i64 1
  store i32 %20, i32* %21, align 4, !tbaa !5
  %22 = udiv i32 %19, 10
  %23 = getelementptr inbounds [100 x [3 x i32]], [100 x [3 x i32]]* %1, i64 0, i64 %16, i64 2
  store i32 %22, i32* %23, align 4, !tbaa !5
  %24 = icmp eq i64 %17, %11
  br i1 %24, label %12, label %15, !llvm.loop !9

25:                                               ; preds = %110
  br i1 %9, label %26, label %122

26:                                               ; preds = %25
  %27 = zext i32 %8 to i64
  %28 = icmp ult i32 %8, 8
  br i1 %28, label %91, label %29

29:                                               ; preds = %26
  %30 = and i64 %11, 4294967288
  %31 = add nsw i64 %30, -8
  %32 = lshr exact i64 %31, 3
  %33 = add nuw nsw i64 %32, 1
  %34 = and i64 %33, 1
  %35 = icmp eq i64 %31, 0
  br i1 %35, label %67, label %36

36:                                               ; preds = %29
  %37 = and i64 %33, 4611686018427387902
  br label %38

38:                                               ; preds = %38, %36
  %39 = phi i64 [ 0, %36 ], [ %64, %38 ]
  %40 = phi <4 x i32> [ zeroinitializer, %36 ], [ %62, %38 ]
  %41 = phi <4 x i32> [ zeroinitializer, %36 ], [ %63, %38 ]
  %42 = phi i64 [ %37, %36 ], [ %65, %38 ]
  %43 = getelementptr inbounds [100 x i32], [100 x i32]* %2, i64 0, i64 %39
  %44 = bitcast i32* %43 to <4 x i32>*
  %45 = load <4 x i32>, <4 x i32>* %44, align 16, !tbaa !5
  %46 = getelementptr inbounds i32, i32* %43, i64 4
  %47 = bitcast i32* %46 to <4 x i32>*
  %48 = load <4 x i32>, <4 x i32>* %47, align 16, !tbaa !5
  %49 = mul nsw <4 x i32> %45, %45
  %50 = mul nsw <4 x i32> %48, %48
  %51 = add <4 x i32> %49, %40
  %52 = add <4 x i32> %50, %41
  %53 = or i64 %39, 8
  %54 = getelementptr inbounds [100 x i32], [100 x i32]* %2, i64 0, i64 %53
  %55 = bitcast i32* %54 to <4 x i32>*
  %56 = load <4 x i32>, <4 x i32>* %55, align 16, !tbaa !5
  %57 = getelementptr inbounds i32, i32* %54, i64 4
  %58 = bitcast i32* %57 to <4 x i32>*
  %59 = load <4 x i32>, <4 x i32>* %58, align 16, !tbaa !5
  %60 = mul nsw <4 x i32> %56, %56
  %61 = mul nsw <4 x i32> %59, %59
  %62 = add <4 x i32> %60, %51
  %63 = add <4 x i32> %61, %52
  %64 = add nuw i64 %39, 16
  %65 = add i64 %42, -2
  %66 = icmp eq i64 %65, 0
  br i1 %66, label %67, label %38, !llvm.loop !11

67:                                               ; preds = %38, %29
  %68 = phi <4 x i32> [ undef, %29 ], [ %62, %38 ]
  %69 = phi <4 x i32> [ undef, %29 ], [ %63, %38 ]
  %70 = phi i64 [ 0, %29 ], [ %64, %38 ]
  %71 = phi <4 x i32> [ zeroinitializer, %29 ], [ %62, %38 ]
  %72 = phi <4 x i32> [ zeroinitializer, %29 ], [ %63, %38 ]
  %73 = icmp eq i64 %34, 0
  br i1 %73, label %85, label %74

74:                                               ; preds = %67
  %75 = getelementptr inbounds [100 x i32], [100 x i32]* %2, i64 0, i64 %70
  %76 = bitcast i32* %75 to <4 x i32>*
  %77 = load <4 x i32>, <4 x i32>* %76, align 16, !tbaa !5
  %78 = getelementptr inbounds i32, i32* %75, i64 4
  %79 = bitcast i32* %78 to <4 x i32>*
  %80 = load <4 x i32>, <4 x i32>* %79, align 16, !tbaa !5
  %81 = mul nsw <4 x i32> %80, %80
  %82 = add <4 x i32> %81, %72
  %83 = mul nsw <4 x i32> %77, %77
  %84 = add <4 x i32> %83, %71
  br label %85

85:                                               ; preds = %67, %74
  %86 = phi <4 x i32> [ %68, %67 ], [ %84, %74 ]
  %87 = phi <4 x i32> [ %69, %67 ], [ %82, %74 ]
  %88 = add <4 x i32> %87, %86
  %89 = call i32 @llvm.vector.reduce.add.v4i32(<4 x i32> %88)
  %90 = icmp eq i64 %30, %11
  br i1 %90, label %122, label %91

91:                                               ; preds = %26, %85
  %92 = phi i64 [ 0, %26 ], [ %30, %85 ]
  %93 = phi i32 [ 0, %26 ], [ %89, %85 ]
  br label %113

94:                                               ; preds = %13, %110
  %95 = phi i64 [ 0, %13 ], [ %111, %110 ]
  %96 = getelementptr inbounds [100 x [3 x i32]], [100 x [3 x i32]]* %1, i64 0, i64 %95, i64 0
  %97 = load i32, i32* %96, align 4, !tbaa !5
  %98 = srem i32 %97, 7
  %99 = icmp eq i32 %98, 0
  br i1 %99, label %110, label %100

100:                                              ; preds = %94
  %101 = getelementptr inbounds [100 x [3 x i32]], [100 x [3 x i32]]* %1, i64 0, i64 %95, i64 1
  %102 = load i32, i32* %101, align 4, !tbaa !5
  %103 = icmp eq i32 %102, 7
  br i1 %103, label %110, label %104

104:                                              ; preds = %100
  %105 = getelementptr inbounds [100 x [3 x i32]], [100 x [3 x i32]]* %1, i64 0, i64 %95, i64 2
  %106 = load i32, i32* %105, align 4, !tbaa !5
  %107 = icmp eq i32 %106, 7
  br i1 %107, label %110, label %108

108:                                              ; preds = %104
  %109 = getelementptr inbounds [100 x i32], [100 x i32]* %2, i64 0, i64 %95
  store i32 %97, i32* %109, align 4, !tbaa !5
  br label %110

110:                                              ; preds = %94, %100, %104, %108
  %111 = add nuw nsw i64 %95, 1
  %112 = icmp eq i64 %111, %14
  br i1 %112, label %25, label %94, !llvm.loop !13

113:                                              ; preds = %91, %113
  %114 = phi i64 [ %120, %113 ], [ %92, %91 ]
  %115 = phi i32 [ %119, %113 ], [ %93, %91 ]
  %116 = getelementptr inbounds [100 x i32], [100 x i32]* %2, i64 0, i64 %114
  %117 = load i32, i32* %116, align 4, !tbaa !5
  %118 = mul nsw i32 %117, %117
  %119 = add nuw nsw i32 %118, %115
  %120 = add nuw nsw i64 %114, 1
  %121 = icmp eq i64 %120, %27
  br i1 %121, label %122, label %113, !llvm.loop !14

122:                                              ; preds = %113, %85, %0, %12, %25
  %123 = phi i32 [ 0, %25 ], [ 0, %12 ], [ 0, %0 ], [ %89, %85 ], [ %119, %113 ]
  %124 = call nonnull align 8 dereferenceable(8) %"class.std::basic_ostream"* @_ZNSolsEi(%"class.std::basic_ostream"* nonnull align 8 dereferenceable(8) @_ZSt4cout, i32 %123)
  call void @llvm.lifetime.end.p0i8(i64 4, i8* nonnull %6) #8
  call void @llvm.lifetime.end.p0i8(i64 400, i8* nonnull %5) #8
  call void @llvm.lifetime.end.p0i8(i64 1200, i8* nonnull %4) #8
  ret i32 0
}

; Function Attrs: argmemonly mustprogress nofree nosync nounwind willreturn
declare void @llvm.lifetime.start.p0i8(i64 immarg, i8* nocapture) #4

; Function Attrs: argmemonly mustprogress nofree nounwind willreturn writeonly
declare void @llvm.memset.p0i8.i64(i8* nocapture writeonly, i8, i64, i1 immarg) #5

declare nonnull align 8 dereferenceable(16) %"class.std::basic_istream"* @_ZNSirsERi(%"class.std::basic_istream"* nonnull align 8 dereferenceable(16), i32* nonnull align 4 dereferenceable(4)) local_unnamed_addr #0

declare nonnull align 8 dereferenceable(8) %"class.std::basic_ostream"* @_ZNSolsEi(%"class.std::basic_ostream"* nonnull align 8 dereferenceable(8), i32) local_unnamed_addr #0

; Function Attrs: argmemonly mustprogress nofree nosync nounwind willreturn
declare void @llvm.lifetime.end.p0i8(i64 immarg, i8* nocapture) #4

; Function Attrs: sspstrong uwtable
define internal void @_GLOBAL__sub_I_3111.cpp() #6 section ".text.startup" {
  tail call void @_ZNSt8ios_base4InitC1Ev(%"class.std::ios_base::Init"* nonnull align 1 dereferenceable(1) @_ZStL8__ioinit)
  %1 = tail call i32 @__cxa_atexit(void (i8*)* bitcast (void (%"class.std::ios_base::Init"*)* @_ZNSt8ios_base4InitD1Ev to void (i8*)*), i8* getelementptr inbounds (%"class.std::ios_base::Init", %"class.std::ios_base::Init"* @_ZStL8__ioinit, i64 0, i32 0), i8* nonnull @__dso_handle) #8
  ret void
}

; Function Attrs: nofree nosync nounwind readnone willreturn
declare i32 @llvm.vector.reduce.add.v4i32(<4 x i32>) #7


!llvm.module.flags = !{!0, !1, !2, !3}
!llvm.ident = !{!4}

!0 = !{i32 1, !"wchar_size", i32 4}
!1 = !{i32 7, !"PIC Level", i32 2}
!2 = !{i32 7, !"PIE Level", i32 2}
!3 = !{i32 7, !"uwtable", i32 1}
!4 = !{!"clang version 13.0.0"}
!5 = !{!6, !6, i64 0}
!6 = !{!"int", !7, i64 0}
!7 = !{!"omnipotent char", !8, i64 0}
!8 = !{!"Simple C++ TBAA"}
!9 = distinct !{!9, !10}
!10 = !{!"llvm.loop.mustprogress"}
!11 = distinct !{!11, !10, !12}
!12 = !{!"llvm.loop.isvectorized", i32 1}
!13 = distinct !{!13, !10}
!14 = distinct !{!14, !10, !15, !12}
!15 = !{!"llvm.loop.unroll.runtime.disable"}
